target datalayout = "e-m:e-p270:32:32-p271:32:32-p272:64:64-i64:64-i128:128-f80:128-n8:16:32:64-S128"
target triple = "x86_64-pc-linux-gnu"

%struct.Ssw_Man_t_ = type { ptr, i32, ptr, ptr, ptr, ptr, i32, ptr, ptr, ptr, i32, i32, i32, i32, i32, i32, i32, i32, i32, i32, i32, ptr, i32, ptr, i32, i32, i32, i32, ptr, ptr, ptr, i32, ptr, i32, i32, ptr, ptr, ptr, i32, ptr, i32, i32, i32, i32, i32, i32, i32, i32, i32, i32, i32, i32, i32, i32, i32, i32, i32, i32, i32, i32, i32, i32, i64, i64, i64, i64, i64, i64, i64, i64, i64, i64 }
%struct.Aig_Obj_t_ = type { %union.anon, ptr, ptr, i64, i32, i32, %union.anon.0 }
%union.anon = type { ptr }
%union.anon.0 = type { ptr }
%struct.Aig_Man_t_ = type { ptr, ptr, ptr, ptr, ptr, ptr, ptr, %struct.Aig_Obj_t_, i32, i32, i32, i32, i32, i32, [7 x i32], i32, ptr, i32, ptr, i32, ptr, i32, i32, i32, ptr, i32, i32, i32, i32, i32, ptr, ptr, i32, ptr, ptr, i32, ptr, ptr, i32, i32, i32, ptr, ptr, ptr, ptr, ptr, ptr, ptr, ptr, ptr, ptr, ptr, ptr, ptr, ptr, i32, ptr, ptr, ptr, ptr, i32, i64, i64, i64, ptr, ptr }
%struct.Vec_Ptr_t_ = type { i32, i32, ptr }

; Function Attrs: nounwind uwtable
define internal i32 @Aig_IsComplement(ptr noundef %0) #0 {
  %2 = alloca ptr, align 8
  store ptr %0, ptr %2, align 8
  %3 = load ptr, ptr %2, align 8
  %4 = ptrtoint ptr %3 to i64
  %5 = and i64 %4, 1
  %6 = trunc i64 %5 to i32
  ret i32 %6
}

; Function Attrs: nounwind uwtable
define internal ptr @Aig_Regular(ptr noundef %0) #0 {
  %2 = alloca ptr, align 8
  store ptr %0, ptr %2, align 8
  %3 = load ptr, ptr %2, align 8
  %4 = ptrtoint ptr %3 to i64
  %5 = and i64 %4, -2
  %6 = inttoptr i64 %5 to ptr
  ret ptr %6
}

; Function Attrs: nounwind uwtable
define internal void @Abc_InfoSetBit(ptr noundef %0, i32 noundef %1) #0 {
  %3 = alloca ptr, align 8
  %4 = alloca i32, align 4
  store ptr %0, ptr %3, align 8
  store i32 %1, ptr %4, align 4
  %5 = load i32, ptr %4, align 4
  %6 = and i32 %5, 31
  %7 = shl i32 1, %6
  %8 = load ptr, ptr %3, align 8
  %9 = load i32, ptr %4, align 4
  %10 = ashr i32 %9, 5
  %11 = sext i32 %10 to i64
  %12 = getelementptr inbounds i32, ptr %8, i64 %11
  %13 = load i32, ptr %12, align 4
  %14 = or i32 %13, %7
  store i32 %14, ptr %12, align 4
  ret void
}

; Function Attrs: nounwind uwtable
define internal i32 @Aig_ObjPhaseReal(ptr noundef %0) #0 {
  %2 = alloca ptr, align 8
  store ptr %0, ptr %2, align 8
  %3 = load ptr, ptr %2, align 8
  %4 = icmp ne ptr %3, null
  br i1 %4, label %5, label %16

5:                                                ; preds = %1
  %6 = load ptr, ptr %2, align 8
  %7 = call ptr @Aig_Regular(ptr noundef %6)
  %8 = getelementptr inbounds %struct.Aig_Obj_t_, ptr %7, i32 0, i32 3
  %9 = load i64, ptr %8, align 8
  %10 = lshr i64 %9, 3
  %11 = and i64 %10, 1
  %12 = trunc i64 %11 to i32
  %13 = load ptr, ptr %2, align 8
  %14 = call i32 @Aig_IsComplement(ptr noundef %13)
  %15 = xor i32 %12, %14
  br label %17

16:                                               ; preds = %1
  br label %17

17:                                               ; preds = %16, %5
  %18 = phi i32 [ %15, %5 ], [ 1, %16 ]
  ret i32 %18
}

; Function Attrs: nounwind uwtable
define internal ptr @Ssw_ObjFrame(ptr noundef %0, ptr noundef %1, i32 noundef %2) #0 {
  %4 = alloca ptr, align 8
  %5 = alloca ptr, align 8
  %6 = alloca i32, align 4
  store ptr %0, ptr %4, align 8
  store ptr %1, ptr %5, align 8
  store i32 %2, ptr %6, align 4
  %7 = load ptr, ptr %4, align 8
  %8 = getelementptr inbounds %struct.Ssw_Man_t_, ptr %7, i32 0, i32 4
  %9 = load ptr, ptr %8, align 8
  %10 = load ptr, ptr %4, align 8
  %11 = getelementptr inbounds %struct.Ssw_Man_t_, ptr %10, i32 0, i32 1
  %12 = load i32, ptr %11, align 8
  %13 = load ptr, ptr %5, align 8
  %14 = getelementptr inbounds %struct.Aig_Obj_t_, ptr %13, i32 0, i32 5
  %15 = load i32, ptr %14, align 4
  %16 = mul nsw i32 %12, %15
  %17 = load i32, ptr %6, align 4
  %18 = add nsw i32 %16, %17
  %19 = sext i32 %18 to i64
  %20 = getelementptr inbounds ptr, ptr %9, i64 %19
  %21 = load ptr, ptr %20, align 8
  ret ptr %21
}

; Function Attrs: nounwind uwtable
define internal ptr @Vec_PtrEntry(ptr noundef %0, i32 noundef %1) #0 {
  %3 = alloca ptr, align 8
  %4 = alloca i32, align 4
  store ptr %0, ptr %3, align 8
  store i32 %1, ptr %4, align 4
  %5 = load ptr, ptr %3, align 8
  %6 = getelementptr inbounds %struct.Vec_Ptr_t_, ptr %5, i32 0, i32 2
  %7 = load ptr, ptr %6, align 8
  %8 = load i32, ptr %4, align 4
  %9 = sext i32 %8 to i64
  %10 = getelementptr inbounds ptr, ptr %7, i64 %9
  %11 = load ptr, ptr %10, align 8
  ret ptr %11
}

; Function Attrs: nounwind uwtable
define internal i32 @Vec_PtrSize(ptr noundef %0) #0 {
  %2 = alloca ptr, align 8
  store ptr %0, ptr %2, align 8
  %3 = load ptr, ptr %2, align 8
  %4 = getelementptr inbounds %struct.Vec_Ptr_t_, ptr %3, i32 0, i32 1
  %5 = load i32, ptr %4, align 4
  ret i32 %5
}

; Function Attrs: nounwind uwtable
define void @Ssw_SmlSavePatternAigPhase(ptr noundef %0, i32 noundef %1) #0 {
  %3 = alloca ptr, align 8
  %4 = alloca i32, align 4
  %5 = alloca ptr, align 8
  %6 = alloca i32, align 4
  store ptr %0, ptr %3, align 8
  store i32 %1, ptr %4, align 4
  %7 = load ptr, ptr %3, align 8
  %8 = getelementptr inbounds %struct.Ssw_Man_t_, ptr %7, i32 0, i32 39
  %9 = load ptr, ptr %8, align 8
  %10 = load ptr, ptr %3, align 8
  %11 = getelementptr inbounds %struct.Ssw_Man_t_, ptr %10, i32 0, i32 38
  %12 = load i32, ptr %11, align 8
  %13 = sext i32 %12 to i64
  %14 = mul i64 4, %13
  call void @llvm.memset.p0.i64(ptr align 4 %9, i8 0, i64 %14, i1 false)
  store i32 0, ptr %6, align 4
  br label %15

15:                                               ; preds = %47, %2
  %16 = load i32, ptr %6, align 4
  %17 = load ptr, ptr %3, align 8
  %18 = getelementptr inbounds %struct.Ssw_Man_t_, ptr %17, i32 0, i32 2
  %19 = load ptr, ptr %18, align 8
  %20 = getelementptr inbounds %struct.Aig_Man_t_, ptr %19, i32 0, i32 2
  %21 = load ptr, ptr %20, align 8
  %22 = call i32 @Vec_PtrSize(ptr noundef %21)
  %23 = icmp slt i32 %16, %22
  br i1 %23, label %24, label %32

24:                                               ; preds = %15
  %25 = load ptr, ptr %3, align 8
  %26 = getelementptr inbounds %struct.Ssw_Man_t_, ptr %25, i32 0, i32 2
  %27 = load ptr, ptr %26, align 8
  %28 = getelementptr inbounds %struct.Aig_Man_t_, ptr %27, i32 0, i32 2
  %29 = load ptr, ptr %28, align 8
  %30 = load i32, ptr %6, align 4
  %31 = call ptr @Vec_PtrEntry(ptr noundef %29, i32 noundef %30)
  store ptr %31, ptr %5, align 8
  br label %32

32:                                               ; preds = %24, %15
  %33 = phi i1 [ false, %15 ], [ true, %24 ]
  br i1 %33, label %34, label %50

34:                                               ; preds = %32
  %35 = load ptr, ptr %3, align 8
  %36 = load ptr, ptr %5, align 8
  %37 = load i32, ptr %4, align 4
  %38 = call ptr @Ssw_ObjFrame(ptr noundef %35, ptr noundef %36, i32 noundef %37)
  %39 = call i32 @Aig_ObjPhaseReal(ptr noundef %38)
  %40 = icmp ne i32 %39, 0
  br i1 %40, label %41, label %46

41:                                               ; preds = %34
  %42 = load ptr, ptr %3, align 8
  %43 = getelementptr inbounds %struct.Ssw_Man_t_, ptr %42, i32 0, i32 39
  %44 = load ptr, ptr %43, align 8
  %45 = load i32, ptr %6, align 4
  call void @Abc_InfoSetBit(ptr noundef %44, i32 noundef %45)
  br label %46

46:                                               ; preds = %41, %34
  br label %47

47:                                               ; preds = %46
  %48 = load i32, ptr %6, align 4
  %49 = add nsw i32 %48, 1
  store i32 %49, ptr %6, align 4
  br label %15, !llvm.loop !6

50:                                               ; preds = %32
  ret void
}