; Function Attrs: nofree norecurse nosync nounwind memory(readwrite, inaccessiblemem: none) uwtable
define void @Ssw_SmlSavePatternAigPhase(ptr noundef readonly captures(none) %0, i32 noundef %1) local_unnamed_addr #2 {
  %3 = getelementptr inbounds nuw i8, ptr %0, i64 248
  %4 = load ptr, ptr %3, align 8
  %5 = getelementptr inbounds nuw i8, ptr %0, i64 240
  %6 = load i32, ptr %5, align 8
  %7 = sext i32 %6 to i64
  %8 = shl nsw i64 %7, 2
  tail call void @llvm.memset.p0.i64(ptr align 4 %4, i8 0, i64 %8, i1 false)
  %9 = getelementptr inbounds nuw i8, ptr %0, i64 16
  %10 = load ptr, ptr %9, align 8
  %11 = getelementptr inbounds nuw i8, ptr %10, i64 16
  %12 = load ptr, ptr %11, align 8
  %13 = getelementptr i8, ptr %12, i64 4
  %.val1416 = load i32, ptr %13, align 4
  %14 = icmp sgt i32 %.val1416, 0
  br i1 %14, label %.lr.ph, label %.critedge

.lr.ph:                                           ; preds = %2
  %15 = getelementptr i8, ptr %0, i64 8
  %16 = getelementptr i8, ptr %0, i64 32
  br label %17

17:                                               ; preds = %.lr.ph, %48
  %18 = phi ptr [ %10, %.lr.ph ], [ %49, %48 ]
  %indvars.iv = phi i64 [ 0, %.lr.ph ], [ %indvars.iv.next, %48 ]
  %19 = phi ptr [ %12, %.lr.ph ], [ %51, %48 ]
  %20 = getelementptr i8, ptr %19, i64 8
  %.val13 = load ptr, ptr %20, align 8
  %21 = getelementptr inbounds nuw ptr, ptr %.val13, i64 %indvars.iv
  %22 = load ptr, ptr %21, align 8
  %.val = load i32, ptr %15, align 8
  %.val11 = load ptr, ptr %16, align 8
  %23 = getelementptr i8, ptr %22, i64 36
  %.val12 = load i32, ptr %23, align 4
  %24 = mul nsw i32 %.val12, %.val
  %25 = add nsw i32 %24, %1
  %26 = sext i32 %25 to i64
  %27 = getelementptr inbounds ptr, ptr %.val11, i64 %26
  %28 = load ptr, ptr %27, align 8
  %.not.i = icmp eq ptr %28, null
  br i1 %.not.i, label %Aig_ObjPhaseReal.exit.thread, label %Aig_ObjPhaseReal.exit

Aig_ObjPhaseReal.exit:                            ; preds = %17
  %29 = ptrtoint ptr %28 to i64
  %30 = and i64 %29, -2
  %31 = inttoptr i64 %30 to ptr
  %32 = getelementptr inbounds nuw i8, ptr %31, i64 24
  %33 = load i64, ptr %32, align 8
  %34 = trunc i64 %33 to i32
  %35 = lshr i32 %34, 3
  %36 = trunc i64 %29 to i32
  %37 = xor i32 %35, %36
  %38 = and i32 %37, 1
  %.not = icmp eq i32 %38, 0
  br i1 %.not, label %48, label %Aig_ObjPhaseReal.exit.thread

Aig_ObjPhaseReal.exit.thread:                     ; preds = %17, %Aig_ObjPhaseReal.exit
  %39 = load ptr, ptr %3, align 8
  %40 = trunc nuw nsw i64 %indvars.iv to i32
  %41 = and i32 %40, 31
  %42 = shl nuw i32 1, %41
  %43 = lshr i64 %indvars.iv, 5
  %44 = and i64 %43, 134217727
  %45 = getelementptr inbounds nuw i32, ptr %39, i64 %44
  %46 = load i32, ptr %45, align 4
  %47 = or i32 %46, %42
  store i32 %47, ptr %45, align 4
  %.pre = load ptr, ptr %9, align 8
  br label %48

48:                                               ; preds = %Aig_ObjPhaseReal.exit, %Aig_ObjPhaseReal.exit.thread
  %49 = phi ptr [ %18, %Aig_ObjPhaseReal.exit ], [ %.pre, %Aig_ObjPhaseReal.exit.thread ]
  %indvars.iv.next = add nuw nsw i64 %indvars.iv, 1
  %50 = getelementptr inbounds nuw i8, ptr %49, i64 16
  %51 = load ptr, ptr %50, align 8
  %52 = getelementptr i8, ptr %51, i64 4
  %.val14 = load i32, ptr %52, align 4
  %53 = sext i32 %.val14 to i64
  %54 = icmp slt i64 %indvars.iv.next, %53
  br i1 %54, label %17, label %.critedge, !llvm.loop !7

.critedge:                                        ; preds = %48, %2
  ret void
}